target datalayout = "e-m:e-p270:32:32-p271:32:32-p272:64:64-i64:64-i128:128-f80:128-n8:16:32:64-S128"
target triple = "x86_64-pc-linux-gnu"

%struct.sp_int = type { i16, i16, [129 x i64] }

; Function Attrs: nounwind uwtable
define i32 @sp_exch(ptr noundef %0, ptr noundef %1) #0 {
  %3 = alloca ptr, align 8
  %4 = alloca ptr, align 8
  %5 = alloca i32, align 4
  %6 = alloca ptr, align 8
  %7 = alloca i64, align 8
  %8 = alloca ptr, align 8
  %9 = alloca i16, align 2
  %10 = alloca i16, align 2
  store ptr %0, ptr %3, align 8, !tbaa !3
  store ptr %1, ptr %4, align 8, !tbaa !3
  call void @llvm.lifetime.start.p0(i64 4, ptr %5) #8
  store i32 0, ptr %5, align 4, !tbaa !8
  %11 = load ptr, ptr %3, align 8, !tbaa !3
  %12 = icmp eq ptr %11, null
  br i1 %12, label %16, label %13

13:                                               ; preds = %2
  %14 = load ptr, ptr %4, align 8, !tbaa !3
  %15 = icmp eq ptr %14, null
  br i1 %15, label %16, label %17

16:                                               ; preds = %13, %2
  store i32 -98, ptr %5, align 4, !tbaa !8
  br label %17

17:                                               ; preds = %16, %13
  %18 = load i32, ptr %5, align 4, !tbaa !8
  %19 = icmp eq i32 %18, 0
  br i1 %19, label %20, label %41

20:                                               ; preds = %17
  %21 = load ptr, ptr %3, align 8, !tbaa !3
  %22 = getelementptr inbounds nuw %struct.sp_int, ptr %21, i32 0, i32 1
  %23 = load i16, ptr %22, align 2, !tbaa !12
  %24 = zext i16 %23 to i32
  %25 = load ptr, ptr %4, align 8, !tbaa !3
  %26 = getelementptr inbounds nuw %struct.sp_int, ptr %25, i32 0, i32 0
  %27 = load i16, ptr %26, align 8, !tbaa !15
  %28 = zext i16 %27 to i32
  %29 = icmp slt i32 %24, %28
  br i1 %29, label %40, label %30

30:                                               ; preds = %20
  %31 = load ptr, ptr %4, align 8, !tbaa !3
  %32 = getelementptr inbounds nuw %struct.sp_int, ptr %31, i32 0, i32 1
  %33 = load i16, ptr %32, align 2, !tbaa !12
  %34 = zext i16 %33 to i32
  %35 = load ptr, ptr %3, align 8, !tbaa !3
  %36 = getelementptr inbounds nuw %struct.sp_int, ptr %35, i32 0, i32 0
  %37 = load i16, ptr %36, align 8, !tbaa !15
  %38 = zext i16 %37 to i32
  %39 = icmp slt i32 %34, %38
  br i1 %39, label %40, label %41

40:                                               ; preds = %30, %20
  store i32 -98, ptr %5, align 4, !tbaa !8
  br label %41

41:                                               ; preds = %40, %30, %17
  %42 = load i32, ptr %5, align 4, !tbaa !8
  %43 = icmp eq i32 %42, 0
  br i1 %43, label %44, label %154

44:                                               ; preds = %41
  %45 = load ptr, ptr %3, align 8, !tbaa !3
  %46 = getelementptr inbounds nuw %struct.sp_int, ptr %45, i32 0, i32 0
  %47 = load i16, ptr %46, align 8, !tbaa !15
  %48 = zext i16 %47 to i32
  %49 = icmp sle i32 %48, 1
  br i1 %49, label %50, label %51

50:                                               ; preds = %44
  br label %58

51:                                               ; preds = %44
  %52 = load ptr, ptr %3, align 8, !tbaa !3
  %53 = getelementptr inbounds nuw %struct.sp_int, ptr %52, i32 0, i32 0
  %54 = load i16, ptr %53, align 8, !tbaa !15
  %55 = zext i16 %54 to i32
  %56 = sub nsw i32 %55, 1
  %57 = sext i32 %56 to i64
  br label %58

58:                                               ; preds = %51, %50
  %59 = phi i64 [ 0, %50 ], [ %57, %51 ]
  %60 = mul i64 %59, 8
  %61 = add i64 16, %60
  %62 = call ptr @llvm.stacksave.p0()
  store ptr %62, ptr %6, align 8
  %63 = alloca i8, i64 %61, align 16
  store i64 %61, ptr %7, align 8
  call void @llvm.lifetime.start.p0(i64 8, ptr %8) #8
  store ptr %63, ptr %8, align 8, !tbaa !3
  br label %64

64:                                               ; preds = %58
  %65 = load i32, ptr %5, align 4, !tbaa !8
  %66 = icmp eq i32 %65, 0
  br i1 %66, label %67, label %74

67:                                               ; preds = %64
  %68 = load ptr, ptr %3, align 8, !tbaa !3
  %69 = getelementptr inbounds nuw %struct.sp_int, ptr %68, i32 0, i32 0
  %70 = load i16, ptr %69, align 8, !tbaa !15
  %71 = zext i16 %70 to i32
  %72 = icmp sgt i32 %71, 129
  br i1 %72, label %73, label %74

73:                                               ; preds = %67
  store i32 -98, ptr %5, align 4, !tbaa !8
  br label %74

74:                                               ; preds = %73, %67, %64
  br label %75

75:                                               ; preds = %74
  br label %76

76:                                               ; preds = %75
  %77 = load i32, ptr %5, align 4, !tbaa !8
  %78 = icmp eq i32 %77, 0
  br i1 %78, label %79, label %149

79:                                               ; preds = %76
  call void @llvm.lifetime.start.p0(i64 2, ptr %9) #8
  %80 = load ptr, ptr %3, align 8, !tbaa !3
  %81 = getelementptr inbounds nuw %struct.sp_int, ptr %80, i32 0, i32 1
  %82 = load i16, ptr %81, align 2, !tbaa !12
  store i16 %82, ptr %9, align 2, !tbaa !32
  call void @llvm.lifetime.start.p0(i64 2, ptr %10) #8
  %83 = load ptr, ptr %4, align 8, !tbaa !3
  %84 = getelementptr inbounds nuw %struct.sp_int, ptr %83, i32 0, i32 1
  %85 = load i16, ptr %84, align 2, !tbaa !12
  store i16 %85, ptr %10, align 2, !tbaa !32
  %86 = load ptr, ptr %8, align 8, !tbaa !3
  %87 = load ptr, ptr %3, align 8, !tbaa !3
  %88 = load ptr, ptr %3, align 8, !tbaa !3
  %89 = getelementptr inbounds nuw %struct.sp_int, ptr %88, i32 0, i32 0
  %90 = load i16, ptr %89, align 8, !tbaa !15
  %91 = zext i16 %90 to i32
  %92 = icmp sle i32 %91, 1
  br i1 %92, label %93, label %94

93:                                               ; preds = %79
  br label %101

94:                                               ; preds = %79
  %95 = load ptr, ptr %3, align 8, !tbaa !3
  %96 = getelementptr inbounds nuw %struct.sp_int, ptr %95, i32 0, i32 0
  %97 = load i16, ptr %96, align 8, !tbaa !15
  %98 = zext i16 %97 to i32
  %99 = sub nsw i32 %98, 1
  %100 = sext i32 %99 to i64
  br label %101

101:                                              ; preds = %94, %93
  %102 = phi i64 [ 0, %93 ], [ %100, %94 ]
  %103 = mul i64 %102, 8
  %104 = add i64 16, %103
  call void @llvm.memcpy.p0.p0.i64(ptr align 8 %86, ptr align 8 %87, i64 %104, i1 false)
  %105 = load ptr, ptr %3, align 8, !tbaa !3
  %106 = load ptr, ptr %4, align 8, !tbaa !3
  %107 = load ptr, ptr %4, align 8, !tbaa !3
  %108 = getelementptr inbounds nuw %struct.sp_int, ptr %107, i32 0, i32 0
  %109 = load i16, ptr %108, align 8, !tbaa !15
  %110 = zext i16 %109 to i32
  %111 = icmp sle i32 %110, 1
  br i1 %111, label %112, label %113

112:                                              ; preds = %101
  br label %120

113:                                              ; preds = %101
  %114 = load ptr, ptr %4, align 8, !tbaa !3
  %115 = getelementptr inbounds nuw %struct.sp_int, ptr %114, i32 0, i32 0
  %116 = load i16, ptr %115, align 8, !tbaa !15
  %117 = zext i16 %116 to i32
  %118 = sub nsw i32 %117, 1
  %119 = sext i32 %118 to i64
  br label %120

120:                                              ; preds = %113, %112
  %121 = phi i64 [ 0, %112 ], [ %119, %113 ]
  %122 = mul i64 %121, 8
  %123 = add i64 16, %122
  call void @llvm.memcpy.p0.p0.i64(ptr align 8 %105, ptr align 8 %106, i64 %123, i1 false)
  %124 = load ptr, ptr %4, align 8, !tbaa !3
  %125 = load ptr, ptr %8, align 8, !tbaa !3
  %126 = load ptr, ptr %8, align 8, !tbaa !3
  %127 = getelementptr inbounds nuw %struct.sp_int, ptr %126, i32 0, i32 0
  %128 = load i16, ptr %127, align 8, !tbaa !15
  %129 = zext i16 %128 to i32
  %130 = icmp sle i32 %129, 1
  br i1 %130, label %131, label %132

131:                                              ; preds = %120
  br label %139

132:                                              ; preds = %120
  %133 = load ptr, ptr %8, align 8, !tbaa !3
  %134 = getelementptr inbounds nuw %struct.sp_int, ptr %133, i32 0, i32 0
  %135 = load i16, ptr %134, align 8, !tbaa !15
  %136 = zext i16 %135 to i32
  %137 = sub nsw i32 %136, 1
  %138 = sext i32 %137 to i64
  br label %139

139:                                              ; preds = %132, %131
  %140 = phi i64 [ 0, %131 ], [ %138, %132 ]
  %141 = mul i64 %140, 8
  %142 = add i64 16, %141
  call void @llvm.memcpy.p0.p0.i64(ptr align 8 %124, ptr align 8 %125, i64 %142, i1 false)
  %143 = load i16, ptr %9, align 2, !tbaa !32
  %144 = load ptr, ptr %3, align 8, !tbaa !3
  %145 = getelementptr inbounds nuw %struct.sp_int, ptr %144, i32 0, i32 1
  store i16 %143, ptr %145, align 2, !tbaa !12
  %146 = load i16, ptr %10, align 2, !tbaa !32
  %147 = load ptr, ptr %4, align 8, !tbaa !3
  %148 = getelementptr inbounds nuw %struct.sp_int, ptr %147, i32 0, i32 1
  store i16 %146, ptr %148, align 2, !tbaa !12
  call void @llvm.lifetime.end.p0(i64 2, ptr %10) #8
  call void @llvm.lifetime.end.p0(i64 2, ptr %9) #8
  br label %149

149:                                              ; preds = %139, %76
  br label %150

150:                                              ; preds = %149
  br label %151

151:                                              ; preds = %150
  br label %152

152:                                              ; preds = %151
  call void @llvm.lifetime.end.p0(i64 8, ptr %8) #8
  %153 = load ptr, ptr %6, align 8
  call void @llvm.stackrestore.p0(ptr %153)
  br label %154

154:                                              ; preds = %152, %41
  %155 = load i32, ptr %5, align 4, !tbaa !8
  call void @llvm.lifetime.end.p0(i64 4, ptr %5) #8
  ret i32 %155
}