; Function Attrs: mustprogress nofree norecurse nosync nounwind willreturn uwtable
define range(i32 -98, 1) i32 @sp_exch(ptr noundef captures(address_is_null) %0, ptr noundef captures(address_is_null) %1) local_unnamed_addr #5 {
  %3 = icmp ne ptr %0, null
  %4 = icmp ne ptr %1, null
  %or.cond.not = and i1 %3, %4
  br i1 %or.cond.not, label %5, label %.thread39

5:                                                ; preds = %2
  %6 = getelementptr inbounds nuw i8, ptr %0, i64 2
  %7 = load i16, ptr %6, align 2, !tbaa !10
  %8 = load i16, ptr %1, align 8, !tbaa !12
  %9 = icmp ult i16 %7, %8
  br i1 %9, label %.thread39, label %10

10:                                               ; preds = %5
  %11 = getelementptr inbounds nuw i8, ptr %1, i64 2
  %12 = load i16, ptr %11, align 2, !tbaa !10
  %13 = load i16, ptr %0, align 8, !tbaa !12
  %14 = icmp ult i16 %12, %13
  br i1 %14, label %.thread39, label %.thread

.thread:                                          ; preds = %10
  %15 = icmp ult i16 %13, 2
  %16 = zext i16 %13 to i64
  %17 = shl nuw nsw i64 %16, 3
  %18 = add nuw nsw i64 %17, 34359738360
  %19 = and i64 %18, 34359738360
  %20 = add nuw nsw i64 %19, 16
  %21 = select i1 %15, i64 16, i64 %20
  %22 = tail call ptr @llvm.stacksave.p0()
  %23 = alloca i8, i64 %21, align 16
  %24 = load i16, ptr %0, align 8, !tbaa !12
  %25 = icmp ult i16 %24, 130
  %.2 = select i1 %25, i32 0, i32 -98
  br i1 %25, label %26, label %52

26:                                               ; preds = %.thread
  %27 = load i16, ptr %6, align 2, !tbaa !10
  %28 = load i16, ptr %11, align 2, !tbaa !10
  %29 = icmp samesign ult i16 %24, 2
  %30 = shl nuw nsw i16 %24, 3
  %31 = zext nneg i16 %30 to i64
  %32 = add nuw nsw i64 %31, 34359738360
  %33 = and i64 %32, 34359738360
  %34 = add nuw nsw i64 %33, 16
  %35 = select i1 %29, i64 16, i64 %34
  call void @llvm.memcpy.p0.p0.i64(ptr noundef nonnull align 16 dereferenceable(1) %23, ptr noundef nonnull align 8 dereferenceable(1) %0, i64 %35, i1 false)
  %36 = load i16, ptr %1, align 8, !tbaa !12
  %37 = icmp ult i16 %36, 2
  %38 = zext i16 %36 to i64
  %39 = shl nuw nsw i64 %38, 3
  %40 = add nuw nsw i64 %39, 34359738360
  %41 = and i64 %40, 34359738360
  %42 = add nuw nsw i64 %41, 16
  %43 = select i1 %37, i64 16, i64 %42
  tail call void @llvm.memcpy.p0.p0.i64(ptr noundef nonnull align 8 dereferenceable(1) %0, ptr noundef nonnull align 8 dereferenceable(1) %1, i64 %43, i1 false)
  %44 = load i16, ptr %23, align 16, !tbaa !12
  %45 = icmp ult i16 %44, 2
  %46 = zext i16 %44 to i64
  %47 = shl nuw nsw i64 %46, 3
  %48 = add nuw nsw i64 %47, 34359738360
  %49 = and i64 %48, 34359738360
  %50 = add nuw nsw i64 %49, 16
  %51 = select i1 %45, i64 16, i64 %50
  call void @llvm.memcpy.p0.p0.i64(ptr noundef nonnull align 8 dereferenceable(1) %1, ptr noundef nonnull align 16 dereferenceable(1) %23, i64 %51, i1 false)
  store i16 %27, ptr %6, align 2, !tbaa !10
  store i16 %28, ptr %11, align 2, !tbaa !10
  br label %52

52:                                               ; preds = %.thread, %26
  call void @llvm.stackrestore.p0(ptr %22)
  br label %.thread39

.thread39:                                        ; preds = %2, %10, %5, %52
  %.1 = phi i32 [ %.2, %52 ], [ -98, %5 ], [ -98, %10 ], [ -98, %2 ]
  ret i32 %.1
}